target datalayout = "e-m:e-p270:32:32-p271:32:32-p272:64:64-i64:64-i128:128-f80:128-n8:16:32:64-S128"
target triple = "x86_64-pc-linux-gnu"

%"class.mitsuba::ProgressReporter" = type { %"class.mitsuba::Object.base", %"class.mitsuba::Timer", %"class.std::__1::basic_string", %"class.std::__1::basic_string", i64, i64, i64, float, ptr }
%"class.mitsuba::Object.base" = type <{ ptr, %"struct.std::__1::atomic" }>
%"struct.std::__1::atomic" = type { %"struct.std::__1::__atomic_base" }
%"struct.std::__1::__atomic_base" = type { %"struct.std::__1::__atomic_base.0" }
%"struct.std::__1::__atomic_base.0" = type { %"struct.std::__1::__cxx_atomic_impl" }
%"struct.std::__1::__cxx_atomic_impl" = type { %"struct.std::__1::__cxx_atomic_base_impl" }
%"struct.std::__1::__cxx_atomic_base_impl" = type { i32 }
%"class.mitsuba::Timer" = type { %"class.std::__1::chrono::time_point" }
%"class.std::__1::chrono::time_point" = type { %"class.std::__1::chrono::duration" }
%"class.std::__1::chrono::duration" = type { i64 }
%"class.std::__1::basic_string" = type { %"class.std::__1::__compressed_pair" }
%"class.std::__1::__compressed_pair" = type { %"struct.std::__1::__compressed_pair_elem" }
%"struct.std::__1::__compressed_pair_elem" = type { %"struct.std::__1::basic_string<char>::__rep" }
%"struct.std::__1::basic_string<char>::__rep" = type { %union.anon }
%union.anon = type { %"struct.std::__1::basic_string<char>::__long" }
%"struct.std::__1::basic_string<char>::__long" = type { %struct.anon.1, i64, ptr }
%struct.anon.1 = type { i64 }

; Function Attrs: mustprogress nounwind uwtable
define void @_ZN7mitsuba16ProgressReporterD2Ev(ptr noundef nonnull align 8 dereferenceable(112) %0) unnamed_addr #1 align 2 {
  %2 = alloca ptr, align 8
  store ptr %0, ptr %2, align 8
  %3 = load ptr, ptr %2, align 8
  store ptr getelementptr inbounds inrange(-16, 72) ({ [11 x ptr] }, ptr @_ZTVN7mitsuba16ProgressReporterE, i32 0, i32 0, i32 2), ptr %3, align 8
  %4 = getelementptr inbounds %"class.mitsuba::ProgressReporter", ptr %3, i32 0, i32 3
  call void @_ZNSt3__112basic_stringIcNS_11char_traitsIcEENS_9allocatorIcEEED1Ev(ptr noundef nonnull align 8 dereferenceable(24) %4) #12
  %5 = getelementptr inbounds %"class.mitsuba::ProgressReporter", ptr %3, i32 0, i32 2
  call void @_ZNSt3__112basic_stringIcNS_11char_traitsIcEENS_9allocatorIcEEED1Ev(ptr noundef nonnull align 8 dereferenceable(24) %5) #12
  call void @_ZN7mitsuba6ObjectD2Ev(ptr noundef nonnull align 8 dereferenceable(12) %3) #12
  ret void
}