; Function Attrs: mustprogress nounwind uwtable
define void @_ZN7mitsuba16ProgressReporterD2Ev(ptr noundef nonnull align 8 dereferenceable(112) %0) unnamed_addr #4 align 2 {
  store ptr getelementptr inbounds inrange(-16, 72) ({ [11 x ptr] }, ptr @_ZTVN7mitsuba16ProgressReporterE, i64 0, i32 0, i64 2), ptr %0, align 8
  %2 = getelementptr inbounds i8, ptr %0, i64 48
  tail call void @_ZNSt3__112basic_stringIcNS_11char_traitsIcEENS_9allocatorIcEEED1Ev(ptr noundef nonnull align 8 dereferenceable(24) %2) #13
  %3 = getelementptr inbounds i8, ptr %0, i64 24
  tail call void @_ZNSt3__112basic_stringIcNS_11char_traitsIcEENS_9allocatorIcEEED1Ev(ptr noundef nonnull align 8 dereferenceable(24) %3) #13
  tail call void @_ZN7mitsuba6ObjectD2Ev(ptr noundef nonnull align 8 dereferenceable(12) %0) #13
  ret void
}